target datalayout = "e-m:e-p270:32:32-p271:32:32-p272:64:64-i64:64-i128:128-f80:128-n8:16:32:64-S128"
target triple = "x86_64-pc-linux-gnu"

%struct.curl_mimepart = type { ptr, ptr, i32, i32, ptr, ptr, ptr, ptr, ptr, ptr, ptr, ptr, ptr, ptr, ptr, i64, %struct.mime_state, ptr, %struct.mime_encoder_state, i64 }
%struct.mime_state = type { i32, ptr, i64 }
%struct.mime_encoder_state = type { i64, i64, i64, [256 x i8] }
%struct.stat = type { i64, i64, i64, i32, i32, i32, i32, i64, i64, i64, i64, %struct.timespec, %struct.timespec, %struct.timespec, [3 x i64] }
%struct.timespec = type { i64, i64 }

@Curl_cfree = external global ptr, align 8
@Curl_cstrdup = external global ptr, align 8

; Function Attrs: nounwind uwtable
define internal void @cleanup_encoder_state(ptr noundef %0) #0 {
  %2 = alloca ptr, align 8
  store ptr %0, ptr %2, align 8, !tbaa !107
  %3 = load ptr, ptr %2, align 8, !tbaa !107
  %4 = getelementptr inbounds nuw %struct.mime_encoder_state, ptr %3, i32 0, i32 0
  store i64 0, ptr %4, align 8, !tbaa !109
  %5 = load ptr, ptr %2, align 8, !tbaa !107
  %6 = getelementptr inbounds nuw %struct.mime_encoder_state, ptr %5, i32 0, i32 1
  store i64 0, ptr %6, align 8, !tbaa !110
  %7 = load ptr, ptr %2, align 8, !tbaa !107
  %8 = getelementptr inbounds nuw %struct.mime_encoder_state, ptr %7, i32 0, i32 2
  store i64 0, ptr %8, align 8, !tbaa !111
  ret void
}

; Function Attrs: nounwind uwtable
define dso_local i32 @curl_mime_filename(ptr noundef %0, ptr noundef %1) #0 {
  %3 = alloca i32, align 4
  %4 = alloca ptr, align 8
  %5 = alloca ptr, align 8
  store ptr %0, ptr %4, align 8, !tbaa !4
  store ptr %1, ptr %5, align 8, !tbaa !49
  %6 = load ptr, ptr %4, align 8, !tbaa !4
  %7 = icmp ne ptr %6, null
  br i1 %7, label %9, label %8

8:                                                ; preds = %2
  store i32 43, ptr %3, align 4
  br label %33

9:                                                ; preds = %2
  br label %10

10:                                               ; preds = %9
  %11 = load ptr, ptr @Curl_cfree, align 8, !tbaa !22
  %12 = load ptr, ptr %4, align 8, !tbaa !4
  %13 = getelementptr inbounds nuw %struct.curl_mimepart, ptr %12, i32 0, i32 13
  %14 = load ptr, ptr %13, align 8, !tbaa !25
  call void %11(ptr noundef %14)
  %15 = load ptr, ptr %4, align 8, !tbaa !4
  %16 = getelementptr inbounds nuw %struct.curl_mimepart, ptr %15, i32 0, i32 13
  store ptr null, ptr %16, align 8, !tbaa !25
  br label %17

17:                                               ; preds = %10
  %18 = load ptr, ptr %5, align 8, !tbaa !49
  %19 = icmp ne ptr %18, null
  br i1 %19, label %20, label %32

20:                                               ; preds = %17
  %21 = load ptr, ptr @Curl_cstrdup, align 8, !tbaa !22
  %22 = load ptr, ptr %5, align 8, !tbaa !49
  %23 = call ptr %21(ptr noundef %22)
  %24 = load ptr, ptr %4, align 8, !tbaa !4
  %25 = getelementptr inbounds nuw %struct.curl_mimepart, ptr %24, i32 0, i32 13
  store ptr %23, ptr %25, align 8, !tbaa !25
  %26 = load ptr, ptr %4, align 8, !tbaa !4
  %27 = getelementptr inbounds nuw %struct.curl_mimepart, ptr %26, i32 0, i32 13
  %28 = load ptr, ptr %27, align 8, !tbaa !25
  %29 = icmp ne ptr %28, null
  br i1 %29, label %31, label %30

30:                                               ; preds = %20
  store i32 27, ptr %3, align 4
  br label %33

31:                                               ; preds = %20
  br label %32

32:                                               ; preds = %31, %17
  store i32 0, ptr %3, align 4
  br label %33

33:                                               ; preds = %32, %30, %8
  %34 = load i32, ptr %3, align 4
  ret i32 %34
}

; Function Attrs: nounwind uwtable
define internal ptr @strippath(ptr noundef %0) #0 {
  %2 = alloca ptr, align 8
  %3 = alloca ptr, align 8
  %4 = alloca ptr, align 8
  %5 = alloca ptr, align 8
  %6 = alloca i32, align 4
  store ptr %0, ptr %3, align 8, !tbaa !49
  call void @llvm.lifetime.start.p0(i64 8, ptr %4) #8
  call void @llvm.lifetime.start.p0(i64 8, ptr %5) #8
  %7 = load ptr, ptr @Curl_cstrdup, align 8, !tbaa !22
  %8 = load ptr, ptr %3, align 8, !tbaa !49
  %9 = call ptr %7(ptr noundef %8)
  store ptr %9, ptr %4, align 8, !tbaa !49
  %10 = load ptr, ptr %4, align 8, !tbaa !49
  %11 = icmp ne ptr %10, null
  br i1 %11, label %13, label %12

12:                                               ; preds = %1
  store ptr null, ptr %2, align 8
  store i32 1, ptr %6, align 4
  br label %21

13:                                               ; preds = %1
  %14 = load ptr, ptr @Curl_cstrdup, align 8, !tbaa !22
  %15 = load ptr, ptr %4, align 8, !tbaa !49
  %16 = call ptr @__xpg_basename(ptr noundef %15) #8
  %17 = call ptr %14(ptr noundef %16)
  store ptr %17, ptr %5, align 8, !tbaa !49
  %18 = load ptr, ptr @Curl_cfree, align 8, !tbaa !22
  %19 = load ptr, ptr %4, align 8, !tbaa !49
  call void %18(ptr noundef %19)
  %20 = load ptr, ptr %5, align 8, !tbaa !49
  store ptr %20, ptr %2, align 8
  store i32 1, ptr %6, align 4
  br label %21

21:                                               ; preds = %13, %12
  call void @llvm.lifetime.end.p0(i64 8, ptr %5) #8
  call void @llvm.lifetime.end.p0(i64 8, ptr %4) #8
  %22 = load ptr, ptr %2, align 8
  ret ptr %22
}

; Function Attrs: nounwind uwtable
define internal void @cleanup_part_content(ptr noundef %0) #0 {
  %2 = alloca ptr, align 8
  store ptr %0, ptr %2, align 8, !tbaa !4
  %3 = load ptr, ptr %2, align 8, !tbaa !4
  %4 = getelementptr inbounds nuw %struct.curl_mimepart, ptr %3, i32 0, i32 7
  %5 = load ptr, ptr %4, align 8, !tbaa !26
  %6 = icmp ne ptr %5, null
  br i1 %6, label %7, label %14

7:                                                ; preds = %1
  %8 = load ptr, ptr %2, align 8, !tbaa !4
  %9 = getelementptr inbounds nuw %struct.curl_mimepart, ptr %8, i32 0, i32 7
  %10 = load ptr, ptr %9, align 8, !tbaa !26
  %11 = load ptr, ptr %2, align 8, !tbaa !4
  %12 = getelementptr inbounds nuw %struct.curl_mimepart, ptr %11, i32 0, i32 8
  %13 = load ptr, ptr %12, align 8, !tbaa !27
  call void %10(ptr noundef %13)
  br label %14

14:                                               ; preds = %7, %1
  %15 = load ptr, ptr %2, align 8, !tbaa !4
  %16 = getelementptr inbounds nuw %struct.curl_mimepart, ptr %15, i32 0, i32 5
  store ptr null, ptr %16, align 8, !tbaa !28
  %17 = load ptr, ptr %2, align 8, !tbaa !4
  %18 = getelementptr inbounds nuw %struct.curl_mimepart, ptr %17, i32 0, i32 6
  store ptr null, ptr %18, align 8, !tbaa !29
  %19 = load ptr, ptr %2, align 8, !tbaa !4
  %20 = getelementptr inbounds nuw %struct.curl_mimepart, ptr %19, i32 0, i32 7
  store ptr null, ptr %20, align 8, !tbaa !26
  %21 = load ptr, ptr %2, align 8, !tbaa !4
  %22 = load ptr, ptr %2, align 8, !tbaa !4
  %23 = getelementptr inbounds nuw %struct.curl_mimepart, ptr %22, i32 0, i32 8
  store ptr %21, ptr %23, align 8, !tbaa !27
  %24 = load ptr, ptr %2, align 8, !tbaa !4
  %25 = getelementptr inbounds nuw %struct.curl_mimepart, ptr %24, i32 0, i32 4
  store ptr null, ptr %25, align 8, !tbaa !30
  %26 = load ptr, ptr %2, align 8, !tbaa !4
  %27 = getelementptr inbounds nuw %struct.curl_mimepart, ptr %26, i32 0, i32 9
  store ptr null, ptr %27, align 8, !tbaa !31
  %28 = load ptr, ptr %2, align 8, !tbaa !4
  %29 = getelementptr inbounds nuw %struct.curl_mimepart, ptr %28, i32 0, i32 15
  store i64 0, ptr %29, align 8, !tbaa !32
  %30 = load ptr, ptr %2, align 8, !tbaa !4
  %31 = getelementptr inbounds nuw %struct.curl_mimepart, ptr %30, i32 0, i32 18
  call void @cleanup_encoder_state(ptr noundef %31)
  %32 = load ptr, ptr %2, align 8, !tbaa !4
  %33 = getelementptr inbounds nuw %struct.curl_mimepart, ptr %32, i32 0, i32 2
  store i32 0, ptr %33, align 8, !tbaa !33
  %34 = load ptr, ptr %2, align 8, !tbaa !4
  %35 = getelementptr inbounds nuw %struct.curl_mimepart, ptr %34, i32 0, i32 3
  %36 = load i32, ptr %35, align 4, !tbaa !20
  %37 = and i32 %36, -5
  store i32 %37, ptr %35, align 4, !tbaa !20
  %38 = load ptr, ptr %2, align 8, !tbaa !4
  %39 = getelementptr inbounds nuw %struct.curl_mimepart, ptr %38, i32 0, i32 19
  store i64 1, ptr %39, align 8, !tbaa !34
  %40 = load ptr, ptr %2, align 8, !tbaa !4
  %41 = getelementptr inbounds nuw %struct.curl_mimepart, ptr %40, i32 0, i32 16
  %42 = getelementptr inbounds nuw %struct.mime_state, ptr %41, i32 0, i32 0
  store i32 0, ptr %42, align 8, !tbaa !35
  ret void
}

; Function Attrs: nounwind uwtable
define dso_local i32 @curl_mime_filedata(ptr noundef %0, ptr noundef %1) #0 {
  %3 = alloca i32, align 4
  %4 = alloca ptr, align 8
  %5 = alloca ptr, align 8
  %6 = alloca i32, align 4
  %7 = alloca i32, align 4
  %8 = alloca ptr, align 8
  %9 = alloca %struct.stat, align 8
  store ptr %0, ptr %4, align 8, !tbaa !4
  store ptr %1, ptr %5, align 8, !tbaa !49
  call void @llvm.lifetime.start.p0(i64 4, ptr %6) #8
  store i32 0, ptr %6, align 4, !tbaa !45
  %10 = load ptr, ptr %4, align 8, !tbaa !4
  %11 = icmp ne ptr %10, null
  br i1 %11, label %13, label %12

12:                                               ; preds = %2
  store i32 43, ptr %3, align 4
  store i32 1, ptr %7, align 4
  br label %70

13:                                               ; preds = %2
  %14 = load ptr, ptr %4, align 8, !tbaa !4
  call void @cleanup_part_content(ptr noundef %14)
  %15 = load ptr, ptr %5, align 8, !tbaa !49
  %16 = icmp ne ptr %15, null
  br i1 %16, label %17, label %68

17:                                               ; preds = %13
  call void @llvm.lifetime.start.p0(i64 8, ptr %8) #8
  call void @llvm.lifetime.start.p0(i64 144, ptr %9) #8
  %18 = load ptr, ptr %5, align 8, !tbaa !49
  %19 = call i32 @stat64(ptr noundef %18, ptr noundef %9) #8
  %20 = icmp ne i32 %19, 0
  br i1 %20, label %21, label %22

21:                                               ; preds = %17
  store i32 26, ptr %6, align 4, !tbaa !45
  br label %67

22:                                               ; preds = %17
  %23 = load ptr, ptr @Curl_cstrdup, align 8, !tbaa !22
  %24 = load ptr, ptr %5, align 8, !tbaa !49
  %25 = call ptr %23(ptr noundef %24)
  %26 = load ptr, ptr %4, align 8, !tbaa !4
  %27 = getelementptr inbounds nuw %struct.curl_mimepart, ptr %26, i32 0, i32 4
  store ptr %25, ptr %27, align 8, !tbaa !30
  %28 = load ptr, ptr %4, align 8, !tbaa !4
  %29 = getelementptr inbounds nuw %struct.curl_mimepart, ptr %28, i32 0, i32 4
  %30 = load ptr, ptr %29, align 8, !tbaa !30
  %31 = icmp ne ptr %30, null
  br i1 %31, label %33, label %32

32:                                               ; preds = %22
  store i32 27, ptr %6, align 4, !tbaa !45
  br label %66

33:                                               ; preds = %22
  %34 = load ptr, ptr %4, align 8, !tbaa !4
  %35 = getelementptr inbounds nuw %struct.curl_mimepart, ptr %34, i32 0, i32 15
  store i64 -1, ptr %35, align 8, !tbaa !32
  %36 = getelementptr inbounds nuw %struct.stat, ptr %9, i32 0, i32 3
  %37 = load i32, ptr %36, align 8, !tbaa !51
  %38 = and i32 %37, 61440
  %39 = icmp eq i32 %38, 32768
  br i1 %39, label %40, label %47

40:                                               ; preds = %33
  %41 = getelementptr inbounds nuw %struct.stat, ptr %9, i32 0, i32 8
  %42 = load i64, ptr %41, align 8, !tbaa !54
  %43 = load ptr, ptr %4, align 8, !tbaa !4
  %44 = getelementptr inbounds nuw %struct.curl_mimepart, ptr %43, i32 0, i32 15
  store i64 %42, ptr %44, align 8, !tbaa !32
  %45 = load ptr, ptr %4, align 8, !tbaa !4
  %46 = getelementptr inbounds nuw %struct.curl_mimepart, ptr %45, i32 0, i32 6
  store ptr @mime_file_seek, ptr %46, align 8, !tbaa !29
  br label %47

47:                                               ; preds = %40, %33
  %48 = load ptr, ptr %4, align 8, !tbaa !4
  %49 = getelementptr inbounds nuw %struct.curl_mimepart, ptr %48, i32 0, i32 5
  store ptr @mime_file_read, ptr %49, align 8, !tbaa !28
  %50 = load ptr, ptr %4, align 8, !tbaa !4
  %51 = getelementptr inbounds nuw %struct.curl_mimepart, ptr %50, i32 0, i32 7
  store ptr @mime_file_free, ptr %51, align 8, !tbaa !26
  %52 = load ptr, ptr %4, align 8, !tbaa !4
  %53 = getelementptr inbounds nuw %struct.curl_mimepart, ptr %52, i32 0, i32 2
  store i32 2, ptr %53, align 8, !tbaa !33
  %54 = load ptr, ptr %5, align 8, !tbaa !49
  %55 = call ptr @strippath(ptr noundef %54)
  store ptr %55, ptr %8, align 8, !tbaa !49
  %56 = load ptr, ptr %8, align 8, !tbaa !49
  %57 = icmp ne ptr %56, null
  br i1 %57, label %59, label %58

58:                                               ; preds = %47
  store i32 27, ptr %6, align 4, !tbaa !45
  br label %65

59:                                               ; preds = %47
  %60 = load ptr, ptr %4, align 8, !tbaa !4
  %61 = load ptr, ptr %8, align 8, !tbaa !49
  %62 = call i32 @curl_mime_filename(ptr noundef %60, ptr noundef %61)
  store i32 %62, ptr %6, align 4, !tbaa !45
  %63 = load ptr, ptr @Curl_cfree, align 8, !tbaa !22
  %64 = load ptr, ptr %8, align 8, !tbaa !49
  call void %63(ptr noundef %64)
  br label %65

65:                                               ; preds = %59, %58
  br label %66

66:                                               ; preds = %65, %32
  br label %67

67:                                               ; preds = %66, %21
  call void @llvm.lifetime.end.p0(i64 144, ptr %9) #8
  call void @llvm.lifetime.end.p0(i64 8, ptr %8) #8
  br label %68

68:                                               ; preds = %67, %13
  %69 = load i32, ptr %6, align 4, !tbaa !45
  store i32 %69, ptr %3, align 4
  store i32 1, ptr %7, align 4
  br label %70

70:                                               ; preds = %68, %12
  call void @llvm.lifetime.end.p0(i64 4, ptr %6) #8
  %71 = load i32, ptr %3, align 4
  ret i32 %71
}