; Function Attrs: nounwind uwtable
define dso_local range(i32 0, 44) i32 @curl_mime_filedata(ptr noundef %0, ptr noundef %1) local_unnamed_addr #0 {
  %3 = alloca %struct.stat, align 8
  %.not = icmp eq ptr %0, null
  br i1 %.not, label %49, label %4

4:                                                ; preds = %2
  %5 = getelementptr inbounds nuw i8, ptr %0, i64 48
  %6 = load ptr, ptr %5, align 8, !tbaa !4
  %.not.i = icmp eq ptr %6, null
  br i1 %.not.i, label %cleanup_part_content.exit, label %7

7:                                                ; preds = %4
  %8 = getelementptr inbounds nuw i8, ptr %0, i64 56
  %9 = load ptr, ptr %8, align 8, !tbaa !19
  tail call void %6(ptr noundef %9) #18
  br label %cleanup_part_content.exit

cleanup_part_content.exit:                        ; preds = %4, %7
  %10 = getelementptr inbounds nuw i8, ptr %0, i64 32
  %11 = getelementptr inbounds nuw i8, ptr %0, i64 56
  tail call void @llvm.memset.p0.i64(ptr noundef nonnull align 8 dereferenceable(24) %10, i8 0, i64 24, i1 false)
  store ptr %0, ptr %11, align 8, !tbaa !19
  %12 = getelementptr inbounds nuw i8, ptr %0, i64 24
  store ptr null, ptr %12, align 8, !tbaa !20
  %13 = getelementptr inbounds nuw i8, ptr %0, i64 64
  store ptr null, ptr %13, align 8, !tbaa !21
  %14 = getelementptr inbounds nuw i8, ptr %0, i64 112
  store i64 0, ptr %14, align 8, !tbaa !22
  %15 = getelementptr inbounds nuw i8, ptr %0, i64 152
  tail call void @llvm.memset.p0.i64(ptr noundef nonnull align 8 dereferenceable(24) %15, i8 0, i64 24, i1 false)
  %16 = getelementptr inbounds nuw i8, ptr %0, i64 16
  store i32 0, ptr %16, align 8, !tbaa !23
  %17 = getelementptr inbounds nuw i8, ptr %0, i64 20
  %18 = load i32, ptr %17, align 4, !tbaa !24
  %19 = and i32 %18, -5
  store i32 %19, ptr %17, align 4, !tbaa !24
  %20 = getelementptr inbounds nuw i8, ptr %0, i64 432
  store i64 1, ptr %20, align 8, !tbaa !25
  %21 = getelementptr inbounds nuw i8, ptr %0, i64 120
  store i32 0, ptr %21, align 8, !tbaa !26
  %.not23 = icmp eq ptr %1, null
  br i1 %.not23, label %49, label %22

22:                                               ; preds = %cleanup_part_content.exit
  call void @llvm.lifetime.start.p0(i64 144, ptr nonnull %3) #18
  %23 = call i32 @stat64(ptr noundef nonnull %1, ptr noundef nonnull %3) #18
  %.not24 = icmp eq i32 %23, 0
  br i1 %.not24, label %24, label %strippath.exit.thread

24:                                               ; preds = %22
  %25 = load ptr, ptr @Curl_cstrdup, align 8, !tbaa !29
  %26 = tail call ptr %25(ptr noundef nonnull %1) #18
  store ptr %26, ptr %12, align 8, !tbaa !20
  %.not25 = icmp eq ptr %26, null
  br i1 %.not25, label %strippath.exit.thread, label %27

27:                                               ; preds = %24
  store i64 -1, ptr %14, align 8, !tbaa !22
  %28 = getelementptr inbounds nuw i8, ptr %3, i64 24
  %29 = load i32, ptr %28, align 8, !tbaa !48
  %30 = and i32 %29, 61440
  %31 = icmp eq i32 %30, 32768
  br i1 %31, label %32, label %36

32:                                               ; preds = %27
  %33 = getelementptr inbounds nuw i8, ptr %3, i64 48
  %34 = load i64, ptr %33, align 8, !tbaa !51
  store i64 %34, ptr %14, align 8, !tbaa !22
  %35 = getelementptr inbounds nuw i8, ptr %0, i64 40
  store ptr @mime_file_seek, ptr %35, align 8, !tbaa !40
  br label %36

36:                                               ; preds = %32, %27
  store ptr @mime_file_read, ptr %10, align 8, !tbaa !39
  store ptr @mime_file_free, ptr %5, align 8, !tbaa !4
  store i32 2, ptr %16, align 8, !tbaa !23
  %37 = load ptr, ptr @Curl_cstrdup, align 8, !tbaa !29
  %38 = tail call ptr %37(ptr noundef nonnull %1) #18
  %.not.i27 = icmp eq ptr %38, null
  br i1 %.not.i27, label %strippath.exit.thread, label %strippath.exit

strippath.exit:                                   ; preds = %36
  %39 = load ptr, ptr @Curl_cstrdup, align 8, !tbaa !29
  %40 = tail call ptr @__xpg_basename(ptr noundef nonnull %38) #18
  %41 = tail call ptr %39(ptr noundef %40) #18
  %42 = load ptr, ptr @Curl_cfree, align 8, !tbaa !29
  tail call void %42(ptr noundef nonnull %38) #18
  %.not26 = icmp eq ptr %41, null
  br i1 %.not26, label %strippath.exit.thread, label %curl_mime_filename.exit

curl_mime_filename.exit:                          ; preds = %strippath.exit
  %43 = load ptr, ptr @Curl_cfree, align 8, !tbaa !29
  %44 = getelementptr inbounds nuw i8, ptr %0, i64 96
  %45 = load ptr, ptr %44, align 8, !tbaa !32
  tail call void %43(ptr noundef %45) #18
  store ptr null, ptr %44, align 8, !tbaa !32
  %46 = load ptr, ptr @Curl_cstrdup, align 8, !tbaa !29
  %47 = tail call ptr %46(ptr noundef nonnull %41) #18
  store ptr %47, ptr %44, align 8, !tbaa !32
  %.not10.i = icmp eq ptr %47, null
  %spec.select = select i1 %.not10.i, i32 27, i32 0
  %48 = load ptr, ptr @Curl_cfree, align 8, !tbaa !29
  tail call void %48(ptr noundef nonnull %41) #18
  br label %strippath.exit.thread

strippath.exit.thread:                            ; preds = %36, %strippath.exit, %24, %22, %curl_mime_filename.exit
  %.1 = phi i32 [ %spec.select, %curl_mime_filename.exit ], [ 26, %22 ], [ 27, %24 ], [ 27, %strippath.exit ], [ 27, %36 ]
  call void @llvm.lifetime.end.p0(i64 144, ptr nonnull %3) #18
  br label %49

49:                                               ; preds = %cleanup_part_content.exit, %strippath.exit.thread, %2
  %.0 = phi i32 [ 43, %2 ], [ %.1, %strippath.exit.thread ], [ 0, %cleanup_part_content.exit ]
  ret i32 %.0
}